target datalayout = "e-m:e-p270:32:32-p271:32:32-p272:64:64-i64:64-i128:128-f80:128-n8:16:32:64-S128"
target triple = "x86_64-unknown-linux-gnu"

%"class.sat::literal" = type { i32 }
%"class.sat::drat" = type { ptr, %class.svector, ptr, %"class.sat::clause_allocator", ptr, ptr, %class.svector.5, %class.svector.7, %class.vector.9, %class.svector.10, i8, i8, i8, i8, i8, %"struct.sat::drat::stats" }
%class.svector = type { %class.vector }
%class.vector = type { ptr }
%"class.sat::clause_allocator" = type { %class.sat_allocator, %class.id_gen }
%class.sat_allocator = type { ptr, i64, %class.ptr_vector, ptr, [65 x %class.ptr_vector.1] }
%class.ptr_vector = type { %class.vector.0 }
%class.vector.0 = type { ptr }
%class.ptr_vector.1 = type { %class.vector.2 }
%class.vector.2 = type { ptr }
%class.id_gen = type { i32, %class.svector.3 }
%class.svector.3 = type { %class.vector.4 }
%class.vector.4 = type { ptr }
%class.svector.5 = type { %class.vector.6 }
%class.vector.6 = type { ptr }
%class.svector.7 = type { %class.vector.8 }
%class.vector.8 = type { ptr }
%class.vector.9 = type { ptr }
%class.svector.10 = type { %class.vector.11 }
%class.vector.11 = type { ptr }
%"struct.sat::drat::stats" = type { i32, i32, i32, i32 }
%class.approx_set_tpl = type { i32 }
%"class.sat::clause" = type { i32, i32, i32, %class.approx_set_tpl, i32, [0 x %"class.sat::literal"] }

; Function Attrs: mustprogress uwtable
define hidden noundef nonnull align 4 dereferenceable(20) ptr @_ZN3sat4drat9mk_clauseEjPKNS_7literalEb(ptr noundef nonnull align 8 dereferenceable(664) %this, i32 noundef %n, ptr noundef %lits, i1 noundef zeroext %is_learned) #5 align 2 {
entry:
  %this.addr = alloca ptr, align 8
  %n.addr = alloca i32, align 4
  %lits.addr = alloca ptr, align 8
  %is_learned.addr = alloca i8, align 1
  store ptr %this, ptr %this.addr, align 8
  store i32 %n, ptr %n.addr, align 4
  store ptr %lits, ptr %lits.addr, align 8
  %frombool = zext i1 %is_learned to i8
  store i8 %frombool, ptr %is_learned.addr, align 1
  %this1 = load ptr, ptr %this.addr, align 8
  %m_alloc = getelementptr inbounds %"class.sat::drat", ptr %this1, i32 0, i32 3
  %0 = load i32, ptr %n.addr, align 4
  %1 = load ptr, ptr %lits.addr, align 8
  %2 = load i8, ptr %is_learned.addr, align 1
  %tobool = trunc i8 %2 to i1
  %call = call noundef ptr @_ZN3sat16clause_allocator9mk_clauseEjPKNS_7literalEb(ptr noundef nonnull align 8 dereferenceable(568) %m_alloc, i32 noundef %0, ptr noundef %1, i1 noundef zeroext %tobool)
  ret ptr %call
}

; Function Attrs: mustprogress nounwind uwtable
define linkonce_odr hidden noundef zeroext i1 @_ZNK3sat6clause10is_learnedEv(ptr noundef nonnull align 4 dereferenceable(20) %this) #4 comdat align 2 {
entry:
  %this.addr = alloca ptr, align 8
  store ptr %this, ptr %this.addr, align 8
  %this1 = load ptr, ptr %this.addr, align 8
  %m_learned = getelementptr inbounds %"class.sat::clause", ptr %this1, i32 0, i32 4
  %bf.load = load i32, ptr %m_learned, align 4
  %bf.lshr = lshr i32 %bf.load, 2
  %bf.clear = and i32 %bf.lshr, 1
  %tobool = icmp ne i32 %bf.clear, 0
  ret i1 %tobool
}

; Function Attrs: mustprogress nounwind uwtable
define linkonce_odr hidden noundef ptr @_ZN3sat6clause5beginEv(ptr noundef nonnull align 4 dereferenceable(20) %this) #4 comdat align 2 {
entry:
  %this.addr = alloca ptr, align 8
  store ptr %this, ptr %this.addr, align 8
  %this1 = load ptr, ptr %this.addr, align 8
  %m_lits = getelementptr inbounds %"class.sat::clause", ptr %this1, i32 0, i32 5
  %arraydecay = getelementptr inbounds [0 x %"class.sat::literal"], ptr %m_lits, i64 0, i64 0
  ret ptr %arraydecay
}

; Function Attrs: mustprogress nounwind uwtable
define linkonce_odr hidden noundef i32 @_ZNK3sat6clause4sizeEv(ptr noundef nonnull align 4 dereferenceable(20) %this) #4 comdat align 2 {
entry:
  %this.addr = alloca ptr, align 8
  store ptr %this, ptr %this.addr, align 8
  %this1 = load ptr, ptr %this.addr, align 8
  %m_size = getelementptr inbounds %"class.sat::clause", ptr %this1, i32 0, i32 1
  %0 = load i32, ptr %m_size, align 4
  ret i32 %0
}

; Function Attrs: mustprogress uwtable
define hidden noundef nonnull align 4 dereferenceable(20) ptr @_ZN3sat4drat9mk_clauseERNS_6clauseE(ptr noundef nonnull align 8 dereferenceable(664) %this, ptr noundef nonnull align 4 dereferenceable(20) %c) #5 align 2 {
entry:
  %this.addr = alloca ptr, align 8
  %c.addr = alloca ptr, align 8
  store ptr %this, ptr %this.addr, align 8
  store ptr %c, ptr %c.addr, align 8
  %this1 = load ptr, ptr %this.addr, align 8
  %0 = load ptr, ptr %c.addr, align 8
  %call = call noundef i32 @_ZNK3sat6clause4sizeEv(ptr noundef nonnull align 4 dereferenceable(20) %0)
  %1 = load ptr, ptr %c.addr, align 8
  %call2 = call noundef ptr @_ZN3sat6clause5beginEv(ptr noundef nonnull align 4 dereferenceable(20) %1)
  %2 = load ptr, ptr %c.addr, align 8
  %call3 = call noundef zeroext i1 @_ZNK3sat6clause10is_learnedEv(ptr noundef nonnull align 4 dereferenceable(20) %2)
  %call4 = call noundef nonnull align 4 dereferenceable(20) ptr @_ZN3sat4drat9mk_clauseEjPKNS_7literalEb(ptr noundef nonnull align 8 dereferenceable(664) %this1, i32 noundef %call, ptr noundef %call2, i1 noundef zeroext %call3)
  ret ptr %call4
}