; Function Attrs: mustprogress uwtable
define hidden noundef nonnull align 4 dereferenceable(20) ptr @_ZN3sat4drat9mk_clauseERNS_6clauseE(ptr noundef nonnull align 8 dereferenceable(664) %this, ptr noundef nonnull align 4 dereferenceable(20) %c) local_unnamed_addr #3 align 2 {
entry:
  %m_size.i = getelementptr inbounds i8, ptr %c, i64 4
  %0 = load i32, ptr %m_size.i, align 4
  %m_lits.i = getelementptr inbounds i8, ptr %c, i64 20
  %m_learned.i = getelementptr inbounds i8, ptr %c, i64 16
  %bf.load.i = load i32, ptr %m_learned.i, align 4
  %1 = and i32 %bf.load.i, 4
  %tobool.i = icmp ne i32 %1, 0
  %m_alloc.i = getelementptr inbounds i8, ptr %this, i64 24
  %call.i = tail call noundef nonnull align 4 dereferenceable(20) ptr @_ZN3sat16clause_allocator9mk_clauseEjPKNS_7literalEb(ptr noundef nonnull align 8 dereferenceable(568) %m_alloc.i, i32 noundef %0, ptr noundef nonnull %m_lits.i, i1 noundef zeroext %tobool.i)
  ret ptr %call.i
}